target datalayout = "e-m:e-p270:32:32-p271:32:32-p272:64:64-i64:64-i128:128-f80:128-n8:16:32:64-S128"
target triple = "x86_64-pc-linux-gnu"

%struct.expert_field = type { i32, i32 }

@ei_nas_5gs_extraneous_data = internal global %struct.expert_field zeroinitializer, align 4
@hf_nas_5gs_spare_half_octet = internal global i32 0, align 4
@ei_nas_5gs_missing_mandatory_element = internal global %struct.expert_field zeroinitializer, align 4
@.str.1644 = private unnamed_addr constant [1 x i8] zeroinitializer, align 1
@.str.1664 = private unnamed_addr constant [62 x i8] c"Missing Mandatory element %s%s, rest of dissection is suspect\00", align 1

; Function Attrs: null_pointer_is_valid sspstrong uwtable
define internal void @nas_5gs_mm_id_req(ptr noundef %0, ptr noundef %1, ptr noundef %2, i32 noundef %3, i32 noundef %4) #0 {
  %6 = alloca ptr, align 8
  %7 = alloca ptr, align 8
  %8 = alloca ptr, align 8
  %9 = alloca i32, align 4
  %10 = alloca i32, align 4
  %11 = alloca i32, align 4
  %12 = alloca i32, align 4
  %13 = alloca i32, align 4
  store ptr %0, ptr %6, align 8
  store ptr %1, ptr %7, align 8
  store ptr %2, ptr %8, align 8
  store i32 %3, ptr %9, align 4
  store i32 %4, ptr %10, align 4
  call void @llvm.lifetime.start.p0(i64 4, ptr %11) #11
  call void @llvm.lifetime.start.p0(i64 4, ptr %12) #11
  call void @llvm.lifetime.start.p0(i64 4, ptr %13) #11
  %14 = load i32, ptr %9, align 4
  store i32 %14, ptr %11, align 4
  %15 = load i32, ptr %10, align 4
  store i32 %15, ptr %13, align 4
  %16 = load ptr, ptr %7, align 8
  %17 = load i32, ptr @hf_nas_5gs_spare_half_octet, align 4
  %18 = load ptr, ptr %6, align 8
  %19 = load i32, ptr %11, align 4
  %20 = call ptr @proto_tree_add_item(ptr noundef %16, i32 noundef %17, ptr noundef %18, i32 noundef %19, i32 noundef 1, i32 noundef 0)
  %21 = load i32, ptr %13, align 4
  %22 = icmp sgt i32 %21, 0
  br i1 %22, label %23, label %38

23:                                               ; preds = %5
  %24 = load ptr, ptr %6, align 8
  %25 = load ptr, ptr %7, align 8
  %26 = load ptr, ptr %8, align 8
  %27 = load i32, ptr %11, align 4
  %28 = call zeroext i16 @elem_v(ptr noundef %24, ptr noundef %25, ptr noundef %26, i32 noundef 17, i32 noundef 3, i32 noundef %27, ptr noundef null)
  %29 = zext i16 %28 to i32
  store i32 %29, ptr %12, align 4
  %30 = icmp ugt i32 %29, 0
  br i1 %30, label %31, label %38

31:                                               ; preds = %23
  %32 = load i32, ptr %12, align 4
  %33 = load i32, ptr %11, align 4
  %34 = add i32 %33, %32
  store i32 %34, ptr %11, align 4
  %35 = load i32, ptr %12, align 4
  %36 = load i32, ptr %13, align 4
  %37 = sub i32 %36, %35
  store i32 %37, ptr %13, align 4
  br label %45

38:                                               ; preds = %23, %5
  %39 = load ptr, ptr %7, align 8
  %40 = load ptr, ptr %8, align 8
  %41 = load ptr, ptr %6, align 8
  %42 = load i32, ptr %11, align 4
  %43 = call ptr @get_gsm_a_msg_string(i32 noundef 17, i32 noundef 3)
  %44 = call ptr (ptr, ptr, ptr, ptr, i32, i32, ptr, ...) @proto_tree_add_expert_format(ptr noundef %39, ptr noundef %40, ptr noundef @ei_nas_5gs_missing_mandatory_element, ptr noundef %41, i32 noundef %42, i32 noundef 0, ptr noundef @.str.1664, ptr noundef %43, ptr noundef @.str.1644)
  br label %45

45:                                               ; preds = %38, %31
  %46 = load i32, ptr %13, align 4
  %47 = icmp ugt i32 %46, 0
  br i1 %47, label %48, label %60

48:                                               ; preds = %45
  %49 = load ptr, ptr %7, align 8
  %50 = load ptr, ptr %8, align 8
  %51 = load ptr, ptr %6, align 8
  %52 = load i32, ptr %11, align 4
  %53 = load i32, ptr %13, align 4
  %54 = sub i32 %53, 0
  %55 = call ptr @proto_tree_add_expert(ptr noundef %49, ptr noundef %50, ptr noundef @ei_nas_5gs_extraneous_data, ptr noundef %51, i32 noundef %52, i32 noundef %54)
  %56 = load i32, ptr %13, align 4
  %57 = sub i32 %56, 0
  %58 = load i32, ptr %11, align 4
  %59 = add i32 %58, %57
  store i32 %59, ptr %11, align 4
  br label %60

60:                                               ; preds = %48, %45
  call void @llvm.lifetime.end.p0(i64 4, ptr %13) #11
  call void @llvm.lifetime.end.p0(i64 4, ptr %12) #11
  call void @llvm.lifetime.end.p0(i64 4, ptr %11) #11
  ret void
}